target datalayout = "e-m:e-p270:32:32-p271:32:32-p272:64:64-i64:64-i128:128-f80:128-n8:16:32:64-S128"
target triple = "x86_64-pc-linux-gnu"

%"class.std::__cxx11::basic_string" = type { %"struct.std::__cxx11::basic_string<char>::_Alloc_hider", i64, %union.anon }
%"struct.std::__cxx11::basic_string<char>::_Alloc_hider" = type { ptr }
%union.anon = type { i64, [8 x i8] }
%"struct.cv::aruco::DetectorParameters" = type <{ i32, i32, i32, [4 x i8], double, double, double, double, double, i32, [4 x i8], double, float, i32, i32, float, i32, [4 x i8], double, i32, i32, double, double, double, double, float, float, i32, i32, float, float, i32, i32, i8, i8, [2 x i8], i32, float, [4 x i8] }>
%"struct.cv::aruco::RefineParameters" = type <{ float, float, i8, [3 x i8] }>
%"struct.cv::Ptr.0" = type { %"class.std::shared_ptr.1" }
%"class.std::shared_ptr.1" = type { %"class.std::__shared_ptr.2" }
%"class.std::__shared_ptr.2" = type { ptr, %"class.std::__shared_count" }
%"class.std::__shared_count" = type { ptr }
%"class.cv::aruco::ArucoDetector" = type { %"class.cv::Algorithm", %"struct.cv::Ptr.0" }
%"class.cv::Algorithm" = type { ptr }
%"class.cv::Mat" = type { i32, i32, i32, i32, ptr, ptr, ptr, ptr, ptr, ptr, %"struct.cv::MatSize", %"struct.cv::MatStep" }
%"struct.cv::MatSize" = type { ptr }
%"struct.cv::MatStep" = type { ptr, [2 x i64] }
%"struct.cv::aruco::ArucoDetector::ArucoDetectorImpl" = type <{ %"class.cv::aruco::Dictionary", %"struct.cv::aruco::DetectorParameters", %"struct.cv::aruco::RefineParameters", [4 x i8] }>
%"class.cv::aruco::Dictionary" = type { %"class.cv::Mat", i32, i32 }

; Function Attrs: mustprogress nounwind uwtable
define linkonce_odr hidden noundef ptr @_ZNKSt12__shared_ptrIN2cv5aruco13ArucoDetector17ArucoDetectorImplELN9__gnu_cxx12_Lock_policyE2EE3getEv(ptr noundef nonnull align 8 dereferenceable(16) %0) #6 comdat align 2 {
  %2 = alloca ptr, align 8
  store ptr %0, ptr %2, align 8
  %3 = load ptr, ptr %2, align 8
  %4 = getelementptr inbounds %"class.std::__shared_ptr.2", ptr %3, i32 0, i32 0
  %5 = load ptr, ptr %4, align 8
  ret ptr %5
}

; Function Attrs: mustprogress nounwind uwtable
define linkonce_odr hidden noundef ptr @_ZNK2cv3PtrINS_5aruco13ArucoDetector17ArucoDetectorImplEEptEv(ptr noundef nonnull align 8 dereferenceable(16) %0) #6 comdat align 2 {
  %2 = alloca ptr, align 8
  store ptr %0, ptr %2, align 8
  %3 = load ptr, ptr %2, align 8
  %4 = call noundef ptr @_ZNKSt12__shared_ptrIN2cv5aruco13ArucoDetector17ArucoDetectorImplELN9__gnu_cxx12_Lock_policyE2EE3getEv(ptr noundef nonnull align 8 dereferenceable(16) %3) #3
  ret ptr %4
}

; Function Attrs: mustprogress uwtable
define void @_ZNK2cv5aruco13ArucoDetector5writeERNS_11FileStorageE(ptr noundef nonnull align 8 dereferenceable(24) %0, ptr noundef nonnull align 8 dereferenceable(64) %1) unnamed_addr #4 align 2 personality ptr @__gxx_personality_v0 {
  %3 = alloca ptr, align 8
  %4 = alloca ptr, align 8
  %5 = alloca %"class.std::__cxx11::basic_string", align 8
  %6 = alloca ptr, align 8
  %7 = alloca i32, align 4
  %8 = alloca %"class.std::__cxx11::basic_string", align 8
  %9 = alloca %"class.std::__cxx11::basic_string", align 8
  store ptr %0, ptr %3, align 8
  store ptr %1, ptr %4, align 8
  %10 = load ptr, ptr %3, align 8
  %11 = getelementptr inbounds %"class.cv::aruco::ArucoDetector", ptr %10, i32 0, i32 1
  %12 = call noundef ptr @_ZNK2cv3PtrINS_5aruco13ArucoDetector17ArucoDetectorImplEEptEv(ptr noundef nonnull align 8 dereferenceable(16) %11) #3
  %13 = getelementptr inbounds %"struct.cv::aruco::ArucoDetector::ArucoDetectorImpl", ptr %12, i32 0, i32 0
  %14 = load ptr, ptr %4, align 8
  call void @_ZNSt7__cxx1112basic_stringIcSt11char_traitsIcESaIcEEC1Ev(ptr noundef nonnull align 8 dereferenceable(32) %5) #3
  invoke void @_ZN2cv5aruco10Dictionary15writeDictionaryERNS_11FileStorageERKNSt7__cxx1112basic_stringIcSt11char_traitsIcESaIcEEE(ptr noundef nonnull align 8 dereferenceable(104) %13, ptr noundef nonnull align 8 dereferenceable(64) %14, ptr noundef nonnull align 8 dereferenceable(32) %5)
          to label %15 unwind label %28

15:                                               ; preds = %2
  call void @_ZNSt7__cxx1112basic_stringIcSt11char_traitsIcESaIcEED1Ev(ptr noundef nonnull align 8 dereferenceable(32) %5) #3
  %16 = getelementptr inbounds %"class.cv::aruco::ArucoDetector", ptr %10, i32 0, i32 1
  %17 = call noundef ptr @_ZNK2cv3PtrINS_5aruco13ArucoDetector17ArucoDetectorImplEEptEv(ptr noundef nonnull align 8 dereferenceable(16) %16) #3
  %18 = getelementptr inbounds %"struct.cv::aruco::ArucoDetector::ArucoDetectorImpl", ptr %17, i32 0, i32 1
  %19 = load ptr, ptr %4, align 8
  call void @_ZNSt7__cxx1112basic_stringIcSt11char_traitsIcESaIcEEC1Ev(ptr noundef nonnull align 8 dereferenceable(32) %8) #3
  %20 = invoke noundef zeroext i1 @_ZN2cv5aruco18DetectorParameters23writeDetectorParametersERNS_11FileStorageERKNSt7__cxx1112basic_stringIcSt11char_traitsIcESaIcEEE(ptr noundef nonnull align 8 dereferenceable(188) %18, ptr noundef nonnull align 8 dereferenceable(64) %19, ptr noundef nonnull align 8 dereferenceable(32) %8)
          to label %21 unwind label %32

21:                                               ; preds = %15
  call void @_ZNSt7__cxx1112basic_stringIcSt11char_traitsIcESaIcEED1Ev(ptr noundef nonnull align 8 dereferenceable(32) %8) #3
  %22 = getelementptr inbounds %"class.cv::aruco::ArucoDetector", ptr %10, i32 0, i32 1
  %23 = call noundef ptr @_ZNK2cv3PtrINS_5aruco13ArucoDetector17ArucoDetectorImplEEptEv(ptr noundef nonnull align 8 dereferenceable(16) %22) #3
  %24 = getelementptr inbounds %"struct.cv::aruco::ArucoDetector::ArucoDetectorImpl", ptr %23, i32 0, i32 2
  %25 = load ptr, ptr %4, align 8
  call void @_ZNSt7__cxx1112basic_stringIcSt11char_traitsIcESaIcEEC1Ev(ptr noundef nonnull align 8 dereferenceable(32) %9) #3
  %26 = invoke noundef zeroext i1 @_ZN2cv5aruco16RefineParameters21writeRefineParametersERNS_11FileStorageERKNSt7__cxx1112basic_stringIcSt11char_traitsIcESaIcEEE(ptr noundef nonnull align 4 dereferenceable(9) %24, ptr noundef nonnull align 8 dereferenceable(64) %25, ptr noundef nonnull align 8 dereferenceable(32) %9)
          to label %27 unwind label %36

27:                                               ; preds = %21
  call void @_ZNSt7__cxx1112basic_stringIcSt11char_traitsIcESaIcEED1Ev(ptr noundef nonnull align 8 dereferenceable(32) %9) #3
  ret void

28:                                               ; preds = %2
  %29 = landingpad { ptr, i32 }
          cleanup
  %30 = extractvalue { ptr, i32 } %29, 0
  store ptr %30, ptr %6, align 8
  %31 = extractvalue { ptr, i32 } %29, 1
  store i32 %31, ptr %7, align 4
  call void @_ZNSt7__cxx1112basic_stringIcSt11char_traitsIcESaIcEED1Ev(ptr noundef nonnull align 8 dereferenceable(32) %5) #3
  br label %40

32:                                               ; preds = %15
  %33 = landingpad { ptr, i32 }
          cleanup
  %34 = extractvalue { ptr, i32 } %33, 0
  store ptr %34, ptr %6, align 8
  %35 = extractvalue { ptr, i32 } %33, 1
  store i32 %35, ptr %7, align 4
  call void @_ZNSt7__cxx1112basic_stringIcSt11char_traitsIcESaIcEED1Ev(ptr noundef nonnull align 8 dereferenceable(32) %8) #3
  br label %40

36:                                               ; preds = %21
  %37 = landingpad { ptr, i32 }
          cleanup
  %38 = extractvalue { ptr, i32 } %37, 0
  store ptr %38, ptr %6, align 8
  %39 = extractvalue { ptr, i32 } %37, 1
  store i32 %39, ptr %7, align 4
  call void @_ZNSt7__cxx1112basic_stringIcSt11char_traitsIcESaIcEED1Ev(ptr noundef nonnull align 8 dereferenceable(32) %9) #3
  br label %40

40:                                               ; preds = %36, %32, %28
  %41 = load ptr, ptr %6, align 8
  %42 = load i32, ptr %7, align 4
  %43 = insertvalue { ptr, i32 } poison, ptr %41, 0
  %44 = insertvalue { ptr, i32 } %43, i32 %42, 1
  resume { ptr, i32 } %44
}